target datalayout = "e-m:e-p270:32:32-p271:32:32-p272:64:64-i64:64-i128:128-f80:128-n8:16:32:64-S128"
target triple = "x86_64-pc-linux-gnu"

%struct.OSSL_TIME = type { i64 }
%struct.CRYPTO_REF_COUNT = type { i32 }
%struct.crypto_ex_data_st = type { ptr, ptr }
%struct.srp_ctx_st = type { ptr, ptr, ptr, ptr, ptr, ptr, ptr, ptr, ptr, ptr, ptr, ptr, ptr, ptr, i32, i64 }
%struct.ssl_ctx_st = type { ptr, ptr, ptr, ptr, ptr, ptr, ptr, i64, ptr, ptr, i32, %struct.OSSL_TIME, ptr, ptr, ptr, %struct.anon.3, %struct.CRYPTO_REF_COUNT, ptr, ptr, ptr, ptr, ptr, ptr, ptr, ptr, ptr, %struct.crypto_ex_data_st, ptr, ptr, ptr, ptr, ptr, ptr, ptr, i64, i32, i32, i32, i64, ptr, ptr, i32, ptr, ptr, i32, i64, [32 x i8], ptr, ptr, ptr, i32, ptr, ptr, ptr, i64, i64, i64, i64, ptr, ptr, ptr, ptr, ptr, %struct.anon.4, ptr, ptr, ptr, ptr, %struct.srp_ctx_st, %struct.dane_ctx_st, ptr, ptr, ptr, ptr, i32, i32, ptr, ptr, i64, i64, ptr, ptr, ptr, i64, ptr, ptr, i32, ptr, ptr, ptr, [14 x i32], [24 x ptr], [14 x ptr], [14 x i64], i64, ptr, ptr, ptr, i64, i64, ptr, i64, i64, i32, i32, i32, i32, ptr, i64, ptr, i64, i64, ptr, ptr }
%struct.anon.3 = type { i32, i32, i32, i32, i32, i32, i32, i32, i32, i32, i32 }
%struct.anon.4 = type { ptr, ptr, [16 x i8], ptr, ptr, ptr, ptr, ptr, i32, i8, i64, ptr, i64, ptr, i64, ptr, i64, ptr, ptr, i64, ptr, ptr, ptr, i64, ptr, ptr, ptr, ptr, [32 x i8] }
%struct.dane_ctx_st = type { ptr, ptr, i8, i64 }
%struct.tls_sigalg_info_st = type { ptr, i16, ptr, ptr, ptr, ptr, ptr, ptr, ptr, ptr, i32, i32, i32 }
%struct.sigalg_lookup_st = type { ptr, i16, i32, i32, i32, i32, i32, i32, i32 }

@.str.2 = private unnamed_addr constant [24 x i8] c"../openssl/ssl/t1_lib.c\00", align 1

; Function Attrs: nounwind uwtable
define i32 @ssl_setup_sigalgs(ptr noundef %0) #1 {
  %2 = alloca ptr, align 8
  %3 = alloca i64, align 8
  %4 = alloca i64, align 8
  %5 = alloca i64, align 8
  %6 = alloca ptr, align 8
  %7 = alloca ptr, align 8
  %8 = alloca ptr, align 8
  %9 = alloca ptr, align 8
  %10 = alloca i32, align 4
  %11 = alloca ptr, align 8
  %12 = alloca i32, align 4
  %13 = alloca %struct.tls_sigalg_info_st, align 8
  store ptr %0, ptr %2, align 8, !tbaa !80
  call void @llvm.lifetime.start.p0(i64 8, ptr %3) #8
  call void @llvm.lifetime.start.p0(i64 8, ptr %4) #8
  call void @llvm.lifetime.start.p0(i64 8, ptr %5) #8
  call void @llvm.lifetime.start.p0(i64 8, ptr %6) #8
  call void @llvm.lifetime.start.p0(i64 8, ptr %7) #8
  store ptr null, ptr %7, align 8, !tbaa !201
  call void @llvm.lifetime.start.p0(i64 8, ptr %8) #8
  store ptr null, ptr %8, align 8, !tbaa !142
  call void @llvm.lifetime.start.p0(i64 8, ptr %9) #8
  %14 = call ptr @EVP_PKEY_new()
  store ptr %14, ptr %9, align 8, !tbaa !202
  call void @llvm.lifetime.start.p0(i64 4, ptr %10) #8
  store i32 0, ptr %10, align 4, !tbaa !128
  %15 = load ptr, ptr %2, align 8, !tbaa !80
  %16 = icmp eq ptr %15, null
  br i1 %16, label %17, label %18

17:                                               ; preds = %1
  br label %211

18:                                               ; preds = %1
  %19 = load ptr, ptr %2, align 8, !tbaa !80
  %20 = getelementptr inbounds nuw %struct.ssl_ctx_st, ptr %19, i32 0, i32 101
  %21 = load i64, ptr %20, align 8, !tbaa !116
  %22 = add i64 31, %21
  store i64 %22, ptr %5, align 8, !tbaa !3
  %23 = load i64, ptr %5, align 8, !tbaa !3
  %24 = mul i64 40, %23
  %25 = call noalias ptr @CRYPTO_malloc(i64 noundef %24, ptr noundef @.str.2, i32 noundef 2147)
  store ptr %25, ptr %7, align 8, !tbaa !201
  %26 = load ptr, ptr %7, align 8, !tbaa !201
  %27 = icmp eq ptr %26, null
  br i1 %27, label %31, label %28

28:                                               ; preds = %18
  %29 = load ptr, ptr %9, align 8, !tbaa !202
  %30 = icmp eq ptr %29, null
  br i1 %30, label %31, label %32

31:                                               ; preds = %28, %18
  br label %211

32:                                               ; preds = %28
  %33 = load i64, ptr %5, align 8, !tbaa !3
  %34 = mul i64 2, %33
  %35 = call noalias ptr @CRYPTO_malloc(i64 noundef %34, ptr noundef @.str.2, i32 noundef 2151)
  store ptr %35, ptr %8, align 8, !tbaa !142
  %36 = load ptr, ptr %8, align 8, !tbaa !142
  %37 = icmp eq ptr %36, null
  br i1 %37, label %38, label %39

38:                                               ; preds = %32
  br label %211

39:                                               ; preds = %32
  %40 = call i32 @ERR_set_mark()
  store i64 0, ptr %3, align 8, !tbaa !3
  store ptr @sigalg_lookup_tbl, ptr %6, align 8, !tbaa !201
  br label %41

41:                                               ; preds = %107, %39
  %42 = load i64, ptr %3, align 8, !tbaa !3
  %43 = icmp ult i64 %42, 31
  br i1 %43, label %44, label %112

44:                                               ; preds = %41
  call void @llvm.lifetime.start.p0(i64 8, ptr %11) #8
  %45 = load ptr, ptr %7, align 8, !tbaa !201
  %46 = load i64, ptr %3, align 8, !tbaa !3
  %47 = getelementptr inbounds nuw %struct.sigalg_lookup_st, ptr %45, i64 %46
  %48 = load ptr, ptr %6, align 8, !tbaa !201
  call void @llvm.memcpy.p0.p0.i64(ptr align 8 %47, ptr align 8 %48, i64 40, i1 false), !tbaa.struct !203
  %49 = load i64, ptr %3, align 8, !tbaa !3
  %50 = getelementptr inbounds nuw [31 x i16], ptr @tls12_sigalgs, i64 0, i64 %49
  %51 = load i16, ptr %50, align 2, !tbaa !100
  %52 = load ptr, ptr %8, align 8, !tbaa !142
  %53 = load i64, ptr %3, align 8, !tbaa !3
  %54 = getelementptr inbounds nuw i16, ptr %52, i64 %53
  store i16 %51, ptr %54, align 2, !tbaa !100
  %55 = load ptr, ptr %6, align 8, !tbaa !201
  %56 = getelementptr inbounds nuw %struct.sigalg_lookup_st, ptr %55, i32 0, i32 2
  %57 = load i32, ptr %56, align 4, !tbaa !204
  %58 = icmp ne i32 %57, 0
  br i1 %58, label %59, label %74

59:                                               ; preds = %44
  %60 = load ptr, ptr %2, align 8, !tbaa !80
  %61 = getelementptr inbounds nuw %struct.ssl_ctx_st, ptr %60, i32 0, i32 92
  %62 = load ptr, ptr %6, align 8, !tbaa !201
  %63 = getelementptr inbounds nuw %struct.sigalg_lookup_st, ptr %62, i32 0, i32 3
  %64 = load i32, ptr %63, align 8, !tbaa !206
  %65 = sext i32 %64 to i64
  %66 = getelementptr inbounds [14 x ptr], ptr %61, i64 0, i64 %65
  %67 = load ptr, ptr %66, align 8, !tbaa !207
  %68 = icmp eq ptr %67, null
  br i1 %68, label %69, label %74

69:                                               ; preds = %59
  %70 = load ptr, ptr %7, align 8, !tbaa !201
  %71 = load i64, ptr %3, align 8, !tbaa !3
  %72 = getelementptr inbounds nuw %struct.sigalg_lookup_st, ptr %70, i64 %71
  %73 = getelementptr inbounds nuw %struct.sigalg_lookup_st, ptr %72, i32 0, i32 8
  store i32 0, ptr %73, align 4, !tbaa !208
  store i32 5, ptr %12, align 4
  br label %104

74:                                               ; preds = %59, %44
  %75 = load ptr, ptr %9, align 8, !tbaa !202
  %76 = load ptr, ptr %6, align 8, !tbaa !201
  %77 = getelementptr inbounds nuw %struct.sigalg_lookup_st, ptr %76, i32 0, i32 4
  %78 = load i32, ptr %77, align 4, !tbaa !209
  %79 = call i32 @EVP_PKEY_set_type(ptr noundef %75, i32 noundef %78)
  %80 = icmp ne i32 %79, 0
  br i1 %80, label %86, label %81

81:                                               ; preds = %74
  %82 = load ptr, ptr %7, align 8, !tbaa !201
  %83 = load i64, ptr %3, align 8, !tbaa !3
  %84 = getelementptr inbounds nuw %struct.sigalg_lookup_st, ptr %82, i64 %83
  %85 = getelementptr inbounds nuw %struct.sigalg_lookup_st, ptr %84, i32 0, i32 8
  store i32 0, ptr %85, align 4, !tbaa !208
  store i32 5, ptr %12, align 4
  br label %104

86:                                               ; preds = %74
  %87 = load ptr, ptr %2, align 8, !tbaa !80
  %88 = getelementptr inbounds nuw %struct.ssl_ctx_st, ptr %87, i32 0, i32 0
  %89 = load ptr, ptr %88, align 8, !tbaa !81
  %90 = load ptr, ptr %9, align 8, !tbaa !202
  %91 = load ptr, ptr %2, align 8, !tbaa !80
  %92 = getelementptr inbounds nuw %struct.ssl_ctx_st, ptr %91, i32 0, i32 89
  %93 = load ptr, ptr %92, align 8, !tbaa !210
  %94 = call ptr @EVP_PKEY_CTX_new_from_pkey(ptr noundef %89, ptr noundef %90, ptr noundef %93)
  store ptr %94, ptr %11, align 8, !tbaa !211
  %95 = load ptr, ptr %11, align 8, !tbaa !211
  %96 = icmp eq ptr %95, null
  br i1 %96, label %97, label %102

97:                                               ; preds = %86
  %98 = load ptr, ptr %7, align 8, !tbaa !201
  %99 = load i64, ptr %3, align 8, !tbaa !3
  %100 = getelementptr inbounds nuw %struct.sigalg_lookup_st, ptr %98, i64 %99
  %101 = getelementptr inbounds nuw %struct.sigalg_lookup_st, ptr %100, i32 0, i32 8
  store i32 0, ptr %101, align 4, !tbaa !208
  br label %102

102:                                              ; preds = %97, %86
  %103 = load ptr, ptr %11, align 8, !tbaa !211
  call void @EVP_PKEY_CTX_free(ptr noundef %103)
  store i32 0, ptr %12, align 4
  br label %104

104:                                              ; preds = %102, %81, %69
  call void @llvm.lifetime.end.p0(i64 8, ptr %11) #8
  %105 = load i32, ptr %12, align 4
  switch i32 %105, label %216 [
    i32 0, label %106
    i32 5, label %107
  ]

106:                                              ; preds = %104
  br label %107

107:                                              ; preds = %106, %104
  %108 = load ptr, ptr %6, align 8, !tbaa !201
  %109 = getelementptr inbounds nuw %struct.sigalg_lookup_st, ptr %108, i32 1
  store ptr %109, ptr %6, align 8, !tbaa !201
  %110 = load i64, ptr %3, align 8, !tbaa !3
  %111 = add i64 %110, 1
  store i64 %111, ptr %3, align 8, !tbaa !3
  br label %41, !llvm.loop !213

112:                                              ; preds = %41
  store i64 31, ptr %4, align 8, !tbaa !3
  store i64 0, ptr %3, align 8, !tbaa !3
  br label %113

113:                                              ; preds = %197, %112
  %114 = load i64, ptr %3, align 8, !tbaa !3
  %115 = load ptr, ptr %2, align 8, !tbaa !80
  %116 = getelementptr inbounds nuw %struct.ssl_ctx_st, ptr %115, i32 0, i32 101
  %117 = load i64, ptr %116, align 8, !tbaa !116
  %118 = icmp ult i64 %114, %117
  br i1 %118, label %119, label %200

119:                                              ; preds = %113
  call void @llvm.lifetime.start.p0(i64 96, ptr %13) #8
  %120 = load ptr, ptr %2, align 8, !tbaa !80
  %121 = getelementptr inbounds nuw %struct.ssl_ctx_st, ptr %120, i32 0, i32 100
  %122 = load ptr, ptr %121, align 8, !tbaa !118
  %123 = load i64, ptr %3, align 8, !tbaa !3
  %124 = getelementptr inbounds nuw %struct.tls_sigalg_info_st, ptr %122, i64 %123
  call void @llvm.memcpy.p0.p0.i64(ptr align 8 %13, ptr align 8 %124, i64 96, i1 false), !tbaa.struct !214
  %125 = getelementptr inbounds nuw %struct.tls_sigalg_info_st, ptr %13, i32 0, i32 0
  %126 = load ptr, ptr %125, align 8, !tbaa !215
  %127 = load ptr, ptr %7, align 8, !tbaa !201
  %128 = load i64, ptr %4, align 8, !tbaa !3
  %129 = getelementptr inbounds nuw %struct.sigalg_lookup_st, ptr %127, i64 %128
  %130 = getelementptr inbounds nuw %struct.sigalg_lookup_st, ptr %129, i32 0, i32 0
  store ptr %126, ptr %130, align 8, !tbaa !216
  %131 = getelementptr inbounds nuw %struct.tls_sigalg_info_st, ptr %13, i32 0, i32 1
  %132 = load i16, ptr %131, align 8, !tbaa !217
  %133 = load ptr, ptr %7, align 8, !tbaa !201
  %134 = load i64, ptr %4, align 8, !tbaa !3
  %135 = getelementptr inbounds nuw %struct.sigalg_lookup_st, ptr %133, i64 %134
  %136 = getelementptr inbounds nuw %struct.sigalg_lookup_st, ptr %135, i32 0, i32 1
  store i16 %132, ptr %136, align 8, !tbaa !218
  %137 = getelementptr inbounds nuw %struct.tls_sigalg_info_st, ptr %13, i32 0, i32 1
  %138 = load i16, ptr %137, align 8, !tbaa !217
  %139 = load ptr, ptr %8, align 8, !tbaa !142
  %140 = load i64, ptr %4, align 8, !tbaa !3
  %141 = getelementptr inbounds nuw i16, ptr %139, i64 %140
  store i16 %138, ptr %141, align 2, !tbaa !100
  %142 = getelementptr inbounds nuw %struct.tls_sigalg_info_st, ptr %13, i32 0, i32 6
  %143 = load ptr, ptr %142, align 8, !tbaa !219
  %144 = icmp ne ptr %143, null
  br i1 %144, label %145, label %149

145:                                              ; preds = %119
  %146 = getelementptr inbounds nuw %struct.tls_sigalg_info_st, ptr %13, i32 0, i32 6
  %147 = load ptr, ptr %146, align 8, !tbaa !219
  %148 = call i32 @OBJ_txt2nid(ptr noundef %147)
  br label %150

149:                                              ; preds = %119
  br label %150

150:                                              ; preds = %149, %145
  %151 = phi i32 [ %148, %145 ], [ 0, %149 ]
  %152 = load ptr, ptr %7, align 8, !tbaa !201
  %153 = load i64, ptr %4, align 8, !tbaa !3
  %154 = getelementptr inbounds nuw %struct.sigalg_lookup_st, ptr %152, i64 %153
  %155 = getelementptr inbounds nuw %struct.sigalg_lookup_st, ptr %154, i32 0, i32 2
  store i32 %151, ptr %155, align 4, !tbaa !204
  %156 = load ptr, ptr %7, align 8, !tbaa !201
  %157 = load i64, ptr %4, align 8, !tbaa !3
  %158 = getelementptr inbounds nuw %struct.sigalg_lookup_st, ptr %156, i64 %157
  %159 = getelementptr inbounds nuw %struct.sigalg_lookup_st, ptr %158, i32 0, i32 2
  %160 = load i32, ptr %159, align 4, !tbaa !204
  %161 = call i32 @ssl_get_md_idx(i32 noundef %160)
  %162 = load ptr, ptr %7, align 8, !tbaa !201
  %163 = load i64, ptr %4, align 8, !tbaa !3
  %164 = getelementptr inbounds nuw %struct.sigalg_lookup_st, ptr %162, i64 %163
  %165 = getelementptr inbounds nuw %struct.sigalg_lookup_st, ptr %164, i32 0, i32 3
  store i32 %161, ptr %165, align 8, !tbaa !206
  %166 = getelementptr inbounds nuw %struct.tls_sigalg_info_st, ptr %13, i32 0, i32 2
  %167 = load ptr, ptr %166, align 8, !tbaa !119
  %168 = call i32 @OBJ_txt2nid(ptr noundef %167)
  %169 = load ptr, ptr %7, align 8, !tbaa !201
  %170 = load i64, ptr %4, align 8, !tbaa !3
  %171 = getelementptr inbounds nuw %struct.sigalg_lookup_st, ptr %169, i64 %170
  %172 = getelementptr inbounds nuw %struct.sigalg_lookup_st, ptr %171, i32 0, i32 4
  store i32 %168, ptr %172, align 4, !tbaa !209
  %173 = load i64, ptr %3, align 8, !tbaa !3
  %174 = add i64 %173, 9
  %175 = trunc i64 %174 to i32
  %176 = load ptr, ptr %7, align 8, !tbaa !201
  %177 = load i64, ptr %4, align 8, !tbaa !3
  %178 = getelementptr inbounds nuw %struct.sigalg_lookup_st, ptr %176, i64 %177
  %179 = getelementptr inbounds nuw %struct.sigalg_lookup_st, ptr %178, i32 0, i32 5
  store i32 %175, ptr %179, align 8, !tbaa !220
  %180 = getelementptr inbounds nuw %struct.tls_sigalg_info_st, ptr %13, i32 0, i32 2
  %181 = load ptr, ptr %180, align 8, !tbaa !119
  %182 = call i32 @OBJ_txt2nid(ptr noundef %181)
  %183 = load ptr, ptr %7, align 8, !tbaa !201
  %184 = load i64, ptr %4, align 8, !tbaa !3
  %185 = getelementptr inbounds nuw %struct.sigalg_lookup_st, ptr %183, i64 %184
  %186 = getelementptr inbounds nuw %struct.sigalg_lookup_st, ptr %185, i32 0, i32 6
  store i32 %182, ptr %186, align 4, !tbaa !221
  %187 = load ptr, ptr %7, align 8, !tbaa !201
  %188 = load i64, ptr %4, align 8, !tbaa !3
  %189 = getelementptr inbounds nuw %struct.sigalg_lookup_st, ptr %187, i64 %188
  %190 = getelementptr inbounds nuw %struct.sigalg_lookup_st, ptr %189, i32 0, i32 7
  store i32 0, ptr %190, align 8, !tbaa !222
  %191 = load ptr, ptr %7, align 8, !tbaa !201
  %192 = load i64, ptr %4, align 8, !tbaa !3
  %193 = getelementptr inbounds nuw %struct.sigalg_lookup_st, ptr %191, i64 %192
  %194 = getelementptr inbounds nuw %struct.sigalg_lookup_st, ptr %193, i32 0, i32 8
  store i32 1, ptr %194, align 4, !tbaa !208
  %195 = load i64, ptr %4, align 8, !tbaa !3
  %196 = add i64 %195, 1
  store i64 %196, ptr %4, align 8, !tbaa !3
  call void @llvm.lifetime.end.p0(i64 96, ptr %13) #8
  br label %197

197:                                              ; preds = %150
  %198 = load i64, ptr %3, align 8, !tbaa !3
  %199 = add i64 %198, 1
  store i64 %199, ptr %3, align 8, !tbaa !3
  br label %113, !llvm.loop !223

200:                                              ; preds = %113
  %201 = call i32 @ERR_pop_to_mark()
  %202 = load ptr, ptr %7, align 8, !tbaa !201
  %203 = load ptr, ptr %2, align 8, !tbaa !80
  %204 = getelementptr inbounds nuw %struct.ssl_ctx_st, ptr %203, i32 0, i32 95
  store ptr %202, ptr %204, align 8, !tbaa !224
  %205 = load ptr, ptr %8, align 8, !tbaa !142
  %206 = load ptr, ptr %2, align 8, !tbaa !80
  %207 = getelementptr inbounds nuw %struct.ssl_ctx_st, ptr %206, i32 0, i32 96
  store ptr %205, ptr %207, align 8, !tbaa !225
  %208 = load i64, ptr %5, align 8, !tbaa !3
  %209 = load ptr, ptr %2, align 8, !tbaa !80
  %210 = getelementptr inbounds nuw %struct.ssl_ctx_st, ptr %209, i32 0, i32 94
  store i64 %208, ptr %210, align 8, !tbaa !226
  store ptr null, ptr %7, align 8, !tbaa !201
  store ptr null, ptr %8, align 8, !tbaa !142
  store i32 1, ptr %10, align 4, !tbaa !128
  br label %211

211:                                              ; preds = %200, %38, %31, %17
  %212 = load ptr, ptr %7, align 8, !tbaa !201
  call void @CRYPTO_free(ptr noundef %212, ptr noundef @.str.2, i32 noundef 2215)
  %213 = load ptr, ptr %8, align 8, !tbaa !142
  call void @CRYPTO_free(ptr noundef %213, ptr noundef @.str.2, i32 noundef 2216)
  %214 = load ptr, ptr %9, align 8, !tbaa !202
  call void @EVP_PKEY_free(ptr noundef %214)
  %215 = load i32, ptr %10, align 4, !tbaa !128
  store i32 1, ptr %12, align 4
  call void @llvm.lifetime.end.p0(i64 4, ptr %10) #8
  call void @llvm.lifetime.end.p0(i64 8, ptr %9) #8
  call void @llvm.lifetime.end.p0(i64 8, ptr %8) #8
  call void @llvm.lifetime.end.p0(i64 8, ptr %7) #8
  call void @llvm.lifetime.end.p0(i64 8, ptr %6) #8
  call void @llvm.lifetime.end.p0(i64 8, ptr %5) #8
  call void @llvm.lifetime.end.p0(i64 8, ptr %4) #8
  call void @llvm.lifetime.end.p0(i64 8, ptr %3) #8
  ret i32 %215

216:                                              ; preds = %104
  unreachable
}