; Function Attrs: nounwind uwtable
define range(i32 0, 2) i32 @ssl_setup_sigalgs(ptr noundef captures(address_is_null) %0) local_unnamed_addr #2 {
  %2 = tail call ptr @EVP_PKEY_new() #14
  %3 = icmp eq ptr %0, null
  br i1 %3, label %85, label %4

4:                                                ; preds = %1
  %5 = getelementptr inbounds nuw i8, ptr %0, i64 1688
  %6 = load i64, ptr %5, align 8, !tbaa !110
  %7 = add i64 %6, 31
  %8 = mul i64 %7, 40
  %9 = tail call noalias ptr @CRYPTO_malloc(i64 noundef %8, ptr noundef nonnull @.str.2, i32 noundef 2147) #14
  %10 = icmp eq ptr %9, null
  %11 = icmp eq ptr %2, null
  %or.cond = select i1 %10, i1 true, i1 %11
  br i1 %or.cond, label %85, label %12

12:                                               ; preds = %4
  %13 = shl i64 %7, 1
  %14 = tail call noalias ptr @CRYPTO_malloc(i64 noundef %13, ptr noundef nonnull @.str.2, i32 noundef 2151) #14
  %15 = icmp eq ptr %14, null
  br i1 %15, label %85, label %16

16:                                               ; preds = %12
  %17 = tail call i32 @ERR_set_mark() #14
  %18 = getelementptr inbounds nuw i8, ptr %0, i64 1408
  %19 = getelementptr inbounds nuw i8, ptr %0, i64 1152
  br label %22

.preheader:                                       ; preds = %52
  %20 = load i64, ptr %5, align 8, !tbaa !110
  %.not92 = icmp eq i64 %20, 0
  br i1 %.not92, label %._crit_edge, label %.lr.ph

.lr.ph:                                           ; preds = %.preheader
  %21 = getelementptr inbounds nuw i8, ptr %0, i64 1680
  br label %55

22:                                               ; preds = %16, %52
  %.089 = phi i64 [ 0, %16 ], [ %54, %52 ]
  %.07788 = phi ptr [ @sigalg_lookup_tbl, %16 ], [ %53, %52 ]
  %23 = getelementptr inbounds nuw %struct.sigalg_lookup_st, ptr %9, i64 %.089
  tail call void @llvm.memcpy.p0.p0.i64(ptr noundef nonnull align 8 dereferenceable(40) %23, ptr noundef nonnull align 8 dereferenceable(40) %.07788, i64 40, i1 false), !tbaa.struct !177
  %24 = getelementptr inbounds nuw [31 x i16], ptr @tls12_sigalgs, i64 0, i64 %.089
  %25 = load i16, ptr %24, align 2, !tbaa !93
  %26 = getelementptr inbounds nuw i16, ptr %14, i64 %.089
  store i16 %25, ptr %26, align 2, !tbaa !93
  %27 = getelementptr inbounds nuw i8, ptr %.07788, i64 12
  %28 = load i32, ptr %27, align 4, !tbaa !178
  %.not86 = icmp eq i32 %28, 0
  br i1 %.not86, label %38, label %29

29:                                               ; preds = %22
  %30 = getelementptr inbounds nuw i8, ptr %.07788, i64 16
  %31 = load i32, ptr %30, align 8, !tbaa !180
  %32 = sext i32 %31 to i64
  %33 = getelementptr inbounds [14 x ptr], ptr %18, i64 0, i64 %32
  %34 = load ptr, ptr %33, align 8, !tbaa !181
  %35 = icmp eq ptr %34, null
  br i1 %35, label %36, label %38

36:                                               ; preds = %29
  %37 = getelementptr inbounds nuw i8, ptr %23, i64 36
  store i32 0, ptr %37, align 4, !tbaa !182
  br label %52

38:                                               ; preds = %29, %22
  %39 = getelementptr inbounds nuw i8, ptr %.07788, i64 20
  %40 = load i32, ptr %39, align 4, !tbaa !183
  %41 = tail call i32 @EVP_PKEY_set_type(ptr noundef %2, i32 noundef %40) #14
  %.not87 = icmp eq i32 %41, 0
  br i1 %.not87, label %42, label %44

42:                                               ; preds = %38
  %43 = getelementptr inbounds nuw i8, ptr %23, i64 36
  store i32 0, ptr %43, align 4, !tbaa !182
  br label %52

44:                                               ; preds = %38
  %45 = load ptr, ptr %0, align 8, !tbaa !76
  %46 = load ptr, ptr %19, align 8, !tbaa !184
  %47 = tail call ptr @EVP_PKEY_CTX_new_from_pkey(ptr noundef %45, ptr noundef %2, ptr noundef %46) #14
  %48 = icmp eq ptr %47, null
  br i1 %48, label %49, label %51

49:                                               ; preds = %44
  %50 = getelementptr inbounds nuw i8, ptr %23, i64 36
  store i32 0, ptr %50, align 4, !tbaa !182
  br label %51

51:                                               ; preds = %49, %44
  tail call void @EVP_PKEY_CTX_free(ptr noundef %47) #14
  br label %52

52:                                               ; preds = %51, %42, %36
  %53 = getelementptr inbounds nuw i8, ptr %.07788, i64 40
  %54 = add nuw nsw i64 %.089, 1
  %exitcond.not = icmp eq i64 %54, 31
  br i1 %exitcond.not, label %.preheader, label %22, !llvm.loop !185

55:                                               ; preds = %.lr.ph, %63
  %.191 = phi i64 [ 0, %.lr.ph ], [ %78, %63 ]
  %.07690 = phi i64 [ 31, %.lr.ph ], [ %77, %63 ]
  %56 = load ptr, ptr %21, align 8, !tbaa !112
  %57 = getelementptr inbounds nuw %struct.tls_sigalg_info_st, ptr %56, i64 %.191
  %.sroa.0.0.copyload = load ptr, ptr %57, align 8, !tbaa !175
  %.sroa.4.0..sroa_idx = getelementptr inbounds nuw i8, ptr %57, i64 8
  %.sroa.4.0.copyload = load i16, ptr %.sroa.4.0..sroa_idx, align 8, !tbaa !93
  %.sroa.63.0..sroa_idx = getelementptr inbounds nuw i8, ptr %57, i64 16
  %.sroa.63.0.copyload = load ptr, ptr %.sroa.63.0..sroa_idx, align 8, !tbaa !175
  %.sroa.85.0..sroa_idx = getelementptr inbounds nuw i8, ptr %57, i64 48
  %.sroa.85.0.copyload = load ptr, ptr %.sroa.85.0..sroa_idx, align 8, !tbaa !175
  %58 = getelementptr inbounds nuw %struct.sigalg_lookup_st, ptr %9, i64 %.07690
  store ptr %.sroa.0.0.copyload, ptr %58, align 8, !tbaa !186
  %59 = getelementptr inbounds nuw i8, ptr %58, i64 8
  store i16 %.sroa.4.0.copyload, ptr %59, align 8, !tbaa !187
  %60 = getelementptr inbounds nuw i16, ptr %14, i64 %.07690
  store i16 %.sroa.4.0.copyload, ptr %60, align 2, !tbaa !93
  %.not = icmp eq ptr %.sroa.85.0.copyload, null
  br i1 %.not, label %63, label %61

61:                                               ; preds = %55
  %62 = tail call i32 @OBJ_txt2nid(ptr noundef nonnull %.sroa.85.0.copyload) #14
  br label %63

63:                                               ; preds = %55, %61
  %64 = phi i32 [ %62, %61 ], [ 0, %55 ]
  %65 = getelementptr inbounds nuw i8, ptr %58, i64 12
  store i32 %64, ptr %65, align 4, !tbaa !178
  %66 = tail call i32 @ssl_get_md_idx(i32 noundef %64) #14
  %67 = getelementptr inbounds nuw i8, ptr %58, i64 16
  store i32 %66, ptr %67, align 8, !tbaa !180
  %68 = tail call i32 @OBJ_txt2nid(ptr noundef %.sroa.63.0.copyload) #14
  %69 = getelementptr inbounds nuw i8, ptr %58, i64 20
  store i32 %68, ptr %69, align 4, !tbaa !183
  %70 = trunc i64 %.191 to i32
  %71 = add i32 %70, 9
  %72 = getelementptr inbounds nuw i8, ptr %58, i64 24
  store i32 %71, ptr %72, align 8, !tbaa !188
  %73 = tail call i32 @OBJ_txt2nid(ptr noundef %.sroa.63.0.copyload) #14
  %74 = getelementptr inbounds nuw i8, ptr %58, i64 28
  store i32 %73, ptr %74, align 4, !tbaa !189
  %75 = getelementptr inbounds nuw i8, ptr %58, i64 32
  store i32 0, ptr %75, align 8, !tbaa !190
  %76 = getelementptr inbounds nuw i8, ptr %58, i64 36
  store i32 1, ptr %76, align 4, !tbaa !182
  %77 = add i64 %.07690, 1
  %78 = add nuw i64 %.191, 1
  %79 = load i64, ptr %5, align 8, !tbaa !110
  %80 = icmp ult i64 %78, %79
  br i1 %80, label %55, label %._crit_edge, !llvm.loop !191

._crit_edge:                                      ; preds = %63, %.preheader
  %81 = tail call i32 @ERR_pop_to_mark() #14
  %82 = getelementptr inbounds nuw i8, ptr %0, i64 1640
  store ptr %9, ptr %82, align 8, !tbaa !192
  %83 = getelementptr inbounds nuw i8, ptr %0, i64 1648
  store ptr %14, ptr %83, align 8, !tbaa !193
  %84 = getelementptr inbounds nuw i8, ptr %0, i64 1632
  store i64 %7, ptr %84, align 8, !tbaa !194
  br label %85

85:                                               ; preds = %12, %4, %1, %._crit_edge
  %.080 = phi i32 [ 0, %1 ], [ 0, %4 ], [ 0, %12 ], [ 1, %._crit_edge ]
  %.078 = phi ptr [ null, %1 ], [ %9, %4 ], [ %9, %12 ], [ null, %._crit_edge ]
  tail call void @CRYPTO_free(ptr noundef %.078, ptr noundef nonnull @.str.2, i32 noundef 2215) #14
  tail call void @CRYPTO_free(ptr noundef null, ptr noundef nonnull @.str.2, i32 noundef 2216) #14
  tail call void @EVP_PKEY_free(ptr noundef %2) #14
  ret i32 %.080
}